target datalayout = "e-m:e-p270:32:32-p271:32:32-p272:64:64-i64:64-i128:128-f80:128-n8:16:32:64-S128"
target triple = "x86_64-pc-linux-gnu"

%"class.testing::internal::ParamGenerator" = type { %"class.testing::internal::linked_ptr" }
%"class.testing::internal::linked_ptr" = type { ptr, %"class.testing::internal::linked_ptr_internal" }
%"class.testing::internal::linked_ptr_internal" = type { ptr }
%"class.testing::internal::ValueArray14" = type { ptr, ptr, ptr, ptr, ptr, ptr, ptr, ptr, ptr, ptr, ptr, ptr, ptr, ptr }

@.str.104 = private unnamed_addr constant [19 x i8] c"version_1_down.jpg\00", align 1
@.str.105 = private unnamed_addr constant [19 x i8] c"version_1_left.jpg\00", align 1
@.str.106 = private unnamed_addr constant [20 x i8] c"version_1_right.jpg\00", align 1
@.str.107 = private unnamed_addr constant [17 x i8] c"version_1_up.jpg\00", align 1
@.str.108 = private unnamed_addr constant [18 x i8] c"version_1_top.jpg\00", align 1
@.str.109 = private unnamed_addr constant [19 x i8] c"version_5_down.jpg\00", align 1
@.str.110 = private unnamed_addr constant [19 x i8] c"version_5_left.jpg\00", align 1
@.str.111 = private unnamed_addr constant [17 x i8] c"version_5_up.jpg\00", align 1
@.str.112 = private unnamed_addr constant [18 x i8] c"version_5_top.jpg\00", align 1
@.str.113 = private unnamed_addr constant [12 x i8] c"russian.jpg\00", align 1
@.str.114 = private unnamed_addr constant [10 x i8] c"kanji.jpg\00", align 1
@.str.115 = private unnamed_addr constant [20 x i8] c"link_github_ocv.jpg\00", align 1
@.str.116 = private unnamed_addr constant [13 x i8] c"link_ocv.jpg\00", align 1
@.str.117 = private unnamed_addr constant [17 x i8] c"link_wiki_cv.jpg\00", align 1

; Function Attrs: mustprogress nounwind uwtable
define linkonce_odr hidden void @_ZN7testing8internal12ValueArray14IPKcS3_S3_S3_S3_S3_S3_S3_S3_S3_S3_S3_S3_S3_EC2ES3_S3_S3_S3_S3_S3_S3_S3_S3_S3_S3_S3_S3_S3_(ptr noundef nonnull align 8 dereferenceable(112) %0, ptr noundef %1, ptr noundef %2, ptr noundef %3, ptr noundef %4, ptr noundef %5, ptr noundef %6, ptr noundef %7, ptr noundef %8, ptr noundef %9, ptr noundef %10, ptr noundef %11, ptr noundef %12, ptr noundef %13, ptr noundef %14) unnamed_addr #7 comdat align 2 {
  %16 = alloca ptr, align 8
  %17 = alloca ptr, align 8
  %18 = alloca ptr, align 8
  %19 = alloca ptr, align 8
  %20 = alloca ptr, align 8
  %21 = alloca ptr, align 8
  %22 = alloca ptr, align 8
  %23 = alloca ptr, align 8
  %24 = alloca ptr, align 8
  %25 = alloca ptr, align 8
  %26 = alloca ptr, align 8
  %27 = alloca ptr, align 8
  %28 = alloca ptr, align 8
  %29 = alloca ptr, align 8
  %30 = alloca ptr, align 8
  store ptr %0, ptr %16, align 8, !tbaa !523
  store ptr %1, ptr %17, align 8, !tbaa !20
  store ptr %2, ptr %18, align 8, !tbaa !20
  store ptr %3, ptr %19, align 8, !tbaa !20
  store ptr %4, ptr %20, align 8, !tbaa !20
  store ptr %5, ptr %21, align 8, !tbaa !20
  store ptr %6, ptr %22, align 8, !tbaa !20
  store ptr %7, ptr %23, align 8, !tbaa !20
  store ptr %8, ptr %24, align 8, !tbaa !20
  store ptr %9, ptr %25, align 8, !tbaa !20
  store ptr %10, ptr %26, align 8, !tbaa !20
  store ptr %11, ptr %27, align 8, !tbaa !20
  store ptr %12, ptr %28, align 8, !tbaa !20
  store ptr %13, ptr %29, align 8, !tbaa !20
  store ptr %14, ptr %30, align 8, !tbaa !20
  %31 = load ptr, ptr %16, align 8
  %32 = getelementptr inbounds nuw %"class.testing::internal::ValueArray14", ptr %31, i32 0, i32 0
  %33 = load ptr, ptr %17, align 8, !tbaa !20
  store ptr %33, ptr %32, align 8, !tbaa !525
  %34 = getelementptr inbounds nuw %"class.testing::internal::ValueArray14", ptr %31, i32 0, i32 1
  %35 = load ptr, ptr %18, align 8, !tbaa !20
  store ptr %35, ptr %34, align 8, !tbaa !527
  %36 = getelementptr inbounds nuw %"class.testing::internal::ValueArray14", ptr %31, i32 0, i32 2
  %37 = load ptr, ptr %19, align 8, !tbaa !20
  store ptr %37, ptr %36, align 8, !tbaa !528
  %38 = getelementptr inbounds nuw %"class.testing::internal::ValueArray14", ptr %31, i32 0, i32 3
  %39 = load ptr, ptr %20, align 8, !tbaa !20
  store ptr %39, ptr %38, align 8, !tbaa !529
  %40 = getelementptr inbounds nuw %"class.testing::internal::ValueArray14", ptr %31, i32 0, i32 4
  %41 = load ptr, ptr %21, align 8, !tbaa !20
  store ptr %41, ptr %40, align 8, !tbaa !530
  %42 = getelementptr inbounds nuw %"class.testing::internal::ValueArray14", ptr %31, i32 0, i32 5
  %43 = load ptr, ptr %22, align 8, !tbaa !20
  store ptr %43, ptr %42, align 8, !tbaa !531
  %44 = getelementptr inbounds nuw %"class.testing::internal::ValueArray14", ptr %31, i32 0, i32 6
  %45 = load ptr, ptr %23, align 8, !tbaa !20
  store ptr %45, ptr %44, align 8, !tbaa !532
  %46 = getelementptr inbounds nuw %"class.testing::internal::ValueArray14", ptr %31, i32 0, i32 7
  %47 = load ptr, ptr %24, align 8, !tbaa !20
  store ptr %47, ptr %46, align 8, !tbaa !533
  %48 = getelementptr inbounds nuw %"class.testing::internal::ValueArray14", ptr %31, i32 0, i32 8
  %49 = load ptr, ptr %25, align 8, !tbaa !20
  store ptr %49, ptr %48, align 8, !tbaa !534
  %50 = getelementptr inbounds nuw %"class.testing::internal::ValueArray14", ptr %31, i32 0, i32 9
  %51 = load ptr, ptr %26, align 8, !tbaa !20
  store ptr %51, ptr %50, align 8, !tbaa !535
  %52 = getelementptr inbounds nuw %"class.testing::internal::ValueArray14", ptr %31, i32 0, i32 10
  %53 = load ptr, ptr %27, align 8, !tbaa !20
  store ptr %53, ptr %52, align 8, !tbaa !536
  %54 = getelementptr inbounds nuw %"class.testing::internal::ValueArray14", ptr %31, i32 0, i32 11
  %55 = load ptr, ptr %28, align 8, !tbaa !20
  store ptr %55, ptr %54, align 8, !tbaa !537
  %56 = getelementptr inbounds nuw %"class.testing::internal::ValueArray14", ptr %31, i32 0, i32 12
  %57 = load ptr, ptr %29, align 8, !tbaa !20
  store ptr %57, ptr %56, align 8, !tbaa !538
  %58 = getelementptr inbounds nuw %"class.testing::internal::ValueArray14", ptr %31, i32 0, i32 13
  %59 = load ptr, ptr %30, align 8, !tbaa !20
  store ptr %59, ptr %58, align 8, !tbaa !539
  ret void
}

; Function Attrs: mustprogress uwtable
define linkonce_odr hidden void @_ZN7testing6ValuesIPKcS2_S2_S2_S2_S2_S2_S2_S2_S2_S2_S2_S2_S2_EENS_8internal12ValueArray14IT_T0_T1_T2_T3_T4_T5_T6_T7_T8_T9_T10_T11_T12_EES5_S6_S7_S8_S9_SA_SB_SC_SD_SE_SF_SG_SH_SI_(ptr dead_on_unwind noalias writable sret(%"class.testing::internal::ValueArray14") align 8 %0, ptr noundef %1, ptr noundef %2, ptr noundef %3, ptr noundef %4, ptr noundef %5, ptr noundef %6, ptr noundef %7, ptr noundef %8, ptr noundef %9, ptr noundef %10, ptr noundef %11, ptr noundef %12, ptr noundef %13, ptr noundef %14) #6 comdat {
  %16 = alloca ptr, align 8
  %17 = alloca ptr, align 8
  %18 = alloca ptr, align 8
  %19 = alloca ptr, align 8
  %20 = alloca ptr, align 8
  %21 = alloca ptr, align 8
  %22 = alloca ptr, align 8
  %23 = alloca ptr, align 8
  %24 = alloca ptr, align 8
  %25 = alloca ptr, align 8
  %26 = alloca ptr, align 8
  %27 = alloca ptr, align 8
  %28 = alloca ptr, align 8
  %29 = alloca ptr, align 8
  %30 = alloca ptr, align 8
  store ptr %0, ptr %16, align 8
  store ptr %1, ptr %17, align 8, !tbaa !20
  store ptr %2, ptr %18, align 8, !tbaa !20
  store ptr %3, ptr %19, align 8, !tbaa !20
  store ptr %4, ptr %20, align 8, !tbaa !20
  store ptr %5, ptr %21, align 8, !tbaa !20
  store ptr %6, ptr %22, align 8, !tbaa !20
  store ptr %7, ptr %23, align 8, !tbaa !20
  store ptr %8, ptr %24, align 8, !tbaa !20
  store ptr %9, ptr %25, align 8, !tbaa !20
  store ptr %10, ptr %26, align 8, !tbaa !20
  store ptr %11, ptr %27, align 8, !tbaa !20
  store ptr %12, ptr %28, align 8, !tbaa !20
  store ptr %13, ptr %29, align 8, !tbaa !20
  store ptr %14, ptr %30, align 8, !tbaa !20
  %31 = load ptr, ptr %17, align 8, !tbaa !20
  %32 = load ptr, ptr %18, align 8, !tbaa !20
  %33 = load ptr, ptr %19, align 8, !tbaa !20
  %34 = load ptr, ptr %20, align 8, !tbaa !20
  %35 = load ptr, ptr %21, align 8, !tbaa !20
  %36 = load ptr, ptr %22, align 8, !tbaa !20
  %37 = load ptr, ptr %23, align 8, !tbaa !20
  %38 = load ptr, ptr %24, align 8, !tbaa !20
  %39 = load ptr, ptr %25, align 8, !tbaa !20
  %40 = load ptr, ptr %26, align 8, !tbaa !20
  %41 = load ptr, ptr %27, align 8, !tbaa !20
  %42 = load ptr, ptr %28, align 8, !tbaa !20
  %43 = load ptr, ptr %29, align 8, !tbaa !20
  %44 = load ptr, ptr %30, align 8, !tbaa !20
  call void @_ZN7testing8internal12ValueArray14IPKcS3_S3_S3_S3_S3_S3_S3_S3_S3_S3_S3_S3_S3_EC2ES3_S3_S3_S3_S3_S3_S3_S3_S3_S3_S3_S3_S3_S3_(ptr noundef nonnull align 8 dereferenceable(112) %0, ptr noundef %31, ptr noundef %32, ptr noundef %33, ptr noundef %34, ptr noundef %35, ptr noundef %36, ptr noundef %37, ptr noundef %38, ptr noundef %39, ptr noundef %40, ptr noundef %41, ptr noundef %42, ptr noundef %43, ptr noundef %44)
  ret void
}

; Function Attrs: mustprogress uwtable
define internal void @_ZN11opencv_test12_GLOBAL__N_142gtest_Perf_Objdetect_QRCode_EvalGenerator_B5cxx11Ev(ptr dead_on_unwind noalias writable sret(%"class.testing::internal::ParamGenerator") align 8 %0) #6 {
  %2 = alloca ptr, align 8
  %3 = alloca %"class.testing::internal::ValueArray14", align 8
  store ptr %0, ptr %2, align 8
  call void @llvm.lifetime.start.p0(i64 112, ptr %3) #3
  call void @_ZN7testing6ValuesIPKcS2_S2_S2_S2_S2_S2_S2_S2_S2_S2_S2_S2_S2_EENS_8internal12ValueArray14IT_T0_T1_T2_T3_T4_T5_T6_T7_T8_T9_T10_T11_T12_EES5_S6_S7_S8_S9_SA_SB_SC_SD_SE_SF_SG_SH_SI_(ptr dead_on_unwind writable sret(%"class.testing::internal::ValueArray14") align 8 %3, ptr noundef @.str.104, ptr noundef @.str.105, ptr noundef @.str.106, ptr noundef @.str.107, ptr noundef @.str.108, ptr noundef @.str.109, ptr noundef @.str.110, ptr noundef @.str.111, ptr noundef @.str.112, ptr noundef @.str.113, ptr noundef @.str.114, ptr noundef @.str.115, ptr noundef @.str.116, ptr noundef @.str.117)
  call void @_ZNK7testing8internal12ValueArray14IPKcS3_S3_S3_S3_S3_S3_S3_S3_S3_S3_S3_S3_S3_EcvNS0_14ParamGeneratorIT_EEINSt7__cxx1112basic_stringIcSt11char_traitsIcESaIcEEEEEv(ptr dead_on_unwind writable sret(%"class.testing::internal::ParamGenerator") align 8 %0, ptr noundef nonnull align 8 dereferenceable(112) %3)
  call void @llvm.lifetime.end.p0(i64 112, ptr %3) #3
  ret void
}