; Function Attrs: mustprogress uwtable
define internal void @_ZN11opencv_test12_GLOBAL__N_142gtest_Perf_Objdetect_QRCode_EvalGenerator_B5cxx11Ev(ptr dead_on_unwind noalias writable sret(%"class.testing::internal::ParamGenerator") align 8 %0) #4 {
  %2 = alloca %"class.testing::internal::ValueArray14", align 8
  call void @llvm.lifetime.start.p0(i64 112, ptr nonnull %2) #33
  store ptr @.str.104, ptr %2, align 8, !tbaa !55, !alias.scope !57
  %3 = getelementptr inbounds nuw i8, ptr %2, i64 8
  store ptr @.str.105, ptr %3, align 8, !tbaa !60, !alias.scope !57
  %4 = getelementptr inbounds nuw i8, ptr %2, i64 16
  store ptr @.str.106, ptr %4, align 8, !tbaa !61, !alias.scope !57
  %5 = getelementptr inbounds nuw i8, ptr %2, i64 24
  store ptr @.str.107, ptr %5, align 8, !tbaa !62, !alias.scope !57
  %6 = getelementptr inbounds nuw i8, ptr %2, i64 32
  store ptr @.str.108, ptr %6, align 8, !tbaa !63, !alias.scope !57
  %7 = getelementptr inbounds nuw i8, ptr %2, i64 40
  store ptr @.str.109, ptr %7, align 8, !tbaa !64, !alias.scope !57
  %8 = getelementptr inbounds nuw i8, ptr %2, i64 48
  store ptr @.str.110, ptr %8, align 8, !tbaa !65, !alias.scope !57
  %9 = getelementptr inbounds nuw i8, ptr %2, i64 56
  store ptr @.str.111, ptr %9, align 8, !tbaa !66, !alias.scope !57
  %10 = getelementptr inbounds nuw i8, ptr %2, i64 64
  store ptr @.str.112, ptr %10, align 8, !tbaa !67, !alias.scope !57
  %11 = getelementptr inbounds nuw i8, ptr %2, i64 72
  store ptr @.str.113, ptr %11, align 8, !tbaa !68, !alias.scope !57
  %12 = getelementptr inbounds nuw i8, ptr %2, i64 80
  store ptr @.str.114, ptr %12, align 8, !tbaa !69, !alias.scope !57
  %13 = getelementptr inbounds nuw i8, ptr %2, i64 88
  store ptr @.str.115, ptr %13, align 8, !tbaa !70, !alias.scope !57
  %14 = getelementptr inbounds nuw i8, ptr %2, i64 96
  store ptr @.str.116, ptr %14, align 8, !tbaa !71, !alias.scope !57
  %15 = getelementptr inbounds nuw i8, ptr %2, i64 104
  store ptr @.str.117, ptr %15, align 8, !tbaa !72, !alias.scope !57
  call void @_ZNK7testing8internal12ValueArray14IPKcS3_S3_S3_S3_S3_S3_S3_S3_S3_S3_S3_S3_S3_EcvNS0_14ParamGeneratorIT_EEINSt7__cxx1112basic_stringIcSt11char_traitsIcESaIcEEEEEv(ptr dead_on_unwind writable sret(%"class.testing::internal::ParamGenerator") align 8 %0, ptr noundef nonnull align 8 dereferenceable(112) %2)
  call void @llvm.lifetime.end.p0(i64 112, ptr nonnull %2) #33
  ret void
}